
_main:

;CharmbixLab4.c,1 :: 		void main() {
;CharmbixLab4.c,2 :: 		TRISB = 0x00;
	CLRF       TRISB+0
;CharmbixLab4.c,4 :: 		while(1)
L_main0:
;CharmbixLab4.c,7 :: 		PORTB = 0x3F;
	MOVLW      63
	MOVWF      PORTB+0
;CharmbixLab4.c,8 :: 		delay_ms(1000);
	MOVLW      26
	MOVWF      R11+0
	MOVLW      94
	MOVWF      R12+0
	MOVLW      110
	MOVWF      R13+0
L_main2:
	DECFSZ     R13+0, 1
	GOTO       L_main2
	DECFSZ     R12+0, 1
	GOTO       L_main2
	DECFSZ     R11+0, 1
	GOTO       L_main2
	NOP
;CharmbixLab4.c,9 :: 		PORTB = 0x06;
	MOVLW      6
	MOVWF      PORTB+0
;CharmbixLab4.c,10 :: 		delay_ms(1000);
	MOVLW      26
	MOVWF      R11+0
	MOVLW      94
	MOVWF      R12+0
	MOVLW      110
	MOVWF      R13+0
L_main3:
	DECFSZ     R13+0, 1
	GOTO       L_main3
	DECFSZ     R12+0, 1
	GOTO       L_main3
	DECFSZ     R11+0, 1
	GOTO       L_main3
	NOP
;CharmbixLab4.c,11 :: 		PORTB = 0x5B;
	MOVLW      91
	MOVWF      PORTB+0
;CharmbixLab4.c,12 :: 		delay_ms(1000);
	MOVLW      26
	MOVWF      R11+0
	MOVLW      94
	MOVWF      R12+0
	MOVLW      110
	MOVWF      R13+0
L_main4:
	DECFSZ     R13+0, 1
	GOTO       L_main4
	DECFSZ     R12+0, 1
	GOTO       L_main4
	DECFSZ     R11+0, 1
	GOTO       L_main4
	NOP
;CharmbixLab4.c,13 :: 		PORTB = 0x4F;
	MOVLW      79
	MOVWF      PORTB+0
;CharmbixLab4.c,14 :: 		delay_ms(1000);
	MOVLW      26
	MOVWF      R11+0
	MOVLW      94
	MOVWF      R12+0
	MOVLW      110
	MOVWF      R13+0
L_main5:
	DECFSZ     R13+0, 1
	GOTO       L_main5
	DECFSZ     R12+0, 1
	GOTO       L_main5
	DECFSZ     R11+0, 1
	GOTO       L_main5
	NOP
;CharmbixLab4.c,15 :: 		PORTB = 0x66;
	MOVLW      102
	MOVWF      PORTB+0
;CharmbixLab4.c,16 :: 		delay_ms(1000);
	MOVLW      26
	MOVWF      R11+0
	MOVLW      94
	MOVWF      R12+0
	MOVLW      110
	MOVWF      R13+0
L_main6:
	DECFSZ     R13+0, 1
	GOTO       L_main6
	DECFSZ     R12+0, 1
	GOTO       L_main6
	DECFSZ     R11+0, 1
	GOTO       L_main6
	NOP
;CharmbixLab4.c,17 :: 		PORTB = 0x6D;
	MOVLW      109
	MOVWF      PORTB+0
;CharmbixLab4.c,18 :: 		delay_ms(1000);
	MOVLW      26
	MOVWF      R11+0
	MOVLW      94
	MOVWF      R12+0
	MOVLW      110
	MOVWF      R13+0
L_main7:
	DECFSZ     R13+0, 1
	GOTO       L_main7
	DECFSZ     R12+0, 1
	GOTO       L_main7
	DECFSZ     R11+0, 1
	GOTO       L_main7
	NOP
;CharmbixLab4.c,19 :: 		PORTB = 0x7D;
	MOVLW      125
	MOVWF      PORTB+0
;CharmbixLab4.c,20 :: 		delay_ms(1000);
	MOVLW      26
	MOVWF      R11+0
	MOVLW      94
	MOVWF      R12+0
	MOVLW      110
	MOVWF      R13+0
L_main8:
	DECFSZ     R13+0, 1
	GOTO       L_main8
	DECFSZ     R12+0, 1
	GOTO       L_main8
	DECFSZ     R11+0, 1
	GOTO       L_main8
	NOP
;CharmbixLab4.c,21 :: 		PORTB = 0x07;
	MOVLW      7
	MOVWF      PORTB+0
;CharmbixLab4.c,22 :: 		delay_ms(1000);
	MOVLW      26
	MOVWF      R11+0
	MOVLW      94
	MOVWF      R12+0
	MOVLW      110
	MOVWF      R13+0
L_main9:
	DECFSZ     R13+0, 1
	GOTO       L_main9
	DECFSZ     R12+0, 1
	GOTO       L_main9
	DECFSZ     R11+0, 1
	GOTO       L_main9
	NOP
;CharmbixLab4.c,23 :: 		PORTB = 0x7F;
	MOVLW      127
	MOVWF      PORTB+0
;CharmbixLab4.c,24 :: 		delay_ms(1000);
	MOVLW      26
	MOVWF      R11+0
	MOVLW      94
	MOVWF      R12+0
	MOVLW      110
	MOVWF      R13+0
L_main10:
	DECFSZ     R13+0, 1
	GOTO       L_main10
	DECFSZ     R12+0, 1
	GOTO       L_main10
	DECFSZ     R11+0, 1
	GOTO       L_main10
	NOP
;CharmbixLab4.c,25 :: 		PORTB = 0x6F;
	MOVLW      111
	MOVWF      PORTB+0
;CharmbixLab4.c,26 :: 		delay_ms(1000);
	MOVLW      26
	MOVWF      R11+0
	MOVLW      94
	MOVWF      R12+0
	MOVLW      110
	MOVWF      R13+0
L_main11:
	DECFSZ     R13+0, 1
	GOTO       L_main11
	DECFSZ     R12+0, 1
	GOTO       L_main11
	DECFSZ     R11+0, 1
	GOTO       L_main11
	NOP
;CharmbixLab4.c,27 :: 		PORTB = 0x77;
	MOVLW      119
	MOVWF      PORTB+0
;CharmbixLab4.c,28 :: 		delay_ms(1000);
	MOVLW      26
	MOVWF      R11+0
	MOVLW      94
	MOVWF      R12+0
	MOVLW      110
	MOVWF      R13+0
L_main12:
	DECFSZ     R13+0, 1
	GOTO       L_main12
	DECFSZ     R12+0, 1
	GOTO       L_main12
	DECFSZ     R11+0, 1
	GOTO       L_main12
	NOP
;CharmbixLab4.c,29 :: 		PORTB = 0x7C;
	MOVLW      124
	MOVWF      PORTB+0
;CharmbixLab4.c,30 :: 		delay_ms(1000);
	MOVLW      26
	MOVWF      R11+0
	MOVLW      94
	MOVWF      R12+0
	MOVLW      110
	MOVWF      R13+0
L_main13:
	DECFSZ     R13+0, 1
	GOTO       L_main13
	DECFSZ     R12+0, 1
	GOTO       L_main13
	DECFSZ     R11+0, 1
	GOTO       L_main13
	NOP
;CharmbixLab4.c,31 :: 		PORTB = 0x39;
	MOVLW      57
	MOVWF      PORTB+0
;CharmbixLab4.c,32 :: 		delay_ms(1000);
	MOVLW      26
	MOVWF      R11+0
	MOVLW      94
	MOVWF      R12+0
	MOVLW      110
	MOVWF      R13+0
L_main14:
	DECFSZ     R13+0, 1
	GOTO       L_main14
	DECFSZ     R12+0, 1
	GOTO       L_main14
	DECFSZ     R11+0, 1
	GOTO       L_main14
	NOP
;CharmbixLab4.c,33 :: 		PORTB = 0x5E;
	MOVLW      94
	MOVWF      PORTB+0
;CharmbixLab4.c,34 :: 		delay_ms(1000);
	MOVLW      26
	MOVWF      R11+0
	MOVLW      94
	MOVWF      R12+0
	MOVLW      110
	MOVWF      R13+0
L_main15:
	DECFSZ     R13+0, 1
	GOTO       L_main15
	DECFSZ     R12+0, 1
	GOTO       L_main15
	DECFSZ     R11+0, 1
	GOTO       L_main15
	NOP
;CharmbixLab4.c,35 :: 		PORTB = 0x79;
	MOVLW      121
	MOVWF      PORTB+0
;CharmbixLab4.c,36 :: 		delay_ms(1000);
	MOVLW      26
	MOVWF      R11+0
	MOVLW      94
	MOVWF      R12+0
	MOVLW      110
	MOVWF      R13+0
L_main16:
	DECFSZ     R13+0, 1
	GOTO       L_main16
	DECFSZ     R12+0, 1
	GOTO       L_main16
	DECFSZ     R11+0, 1
	GOTO       L_main16
	NOP
;CharmbixLab4.c,37 :: 		PORTB = 0x71;
	MOVLW      113
	MOVWF      PORTB+0
;CharmbixLab4.c,38 :: 		delay_ms(1000);
	MOVLW      26
	MOVWF      R11+0
	MOVLW      94
	MOVWF      R12+0
	MOVLW      110
	MOVWF      R13+0
L_main17:
	DECFSZ     R13+0, 1
	GOTO       L_main17
	DECFSZ     R12+0, 1
	GOTO       L_main17
	DECFSZ     R11+0, 1
	GOTO       L_main17
	NOP
;CharmbixLab4.c,40 :: 		PORTB = 0x71;
	MOVLW      113
	MOVWF      PORTB+0
;CharmbixLab4.c,41 :: 		delay_ms(1000);
	MOVLW      26
	MOVWF      R11+0
	MOVLW      94
	MOVWF      R12+0
	MOVLW      110
	MOVWF      R13+0
L_main18:
	DECFSZ     R13+0, 1
	GOTO       L_main18
	DECFSZ     R12+0, 1
	GOTO       L_main18
	DECFSZ     R11+0, 1
	GOTO       L_main18
	NOP
;CharmbixLab4.c,42 :: 		PORTB = 0x79;
	MOVLW      121
	MOVWF      PORTB+0
;CharmbixLab4.c,43 :: 		delay_ms(1000);
	MOVLW      26
	MOVWF      R11+0
	MOVLW      94
	MOVWF      R12+0
	MOVLW      110
	MOVWF      R13+0
L_main19:
	DECFSZ     R13+0, 1
	GOTO       L_main19
	DECFSZ     R12+0, 1
	GOTO       L_main19
	DECFSZ     R11+0, 1
	GOTO       L_main19
	NOP
;CharmbixLab4.c,44 :: 		PORTB = 0x5E;
	MOVLW      94
	MOVWF      PORTB+0
;CharmbixLab4.c,45 :: 		delay_ms(1000);
	MOVLW      26
	MOVWF      R11+0
	MOVLW      94
	MOVWF      R12+0
	MOVLW      110
	MOVWF      R13+0
L_main20:
	DECFSZ     R13+0, 1
	GOTO       L_main20
	DECFSZ     R12+0, 1
	GOTO       L_main20
	DECFSZ     R11+0, 1
	GOTO       L_main20
	NOP
;CharmbixLab4.c,46 :: 		PORTB = 0x39;
	MOVLW      57
	MOVWF      PORTB+0
;CharmbixLab4.c,47 :: 		delay_ms(1000);
	MOVLW      26
	MOVWF      R11+0
	MOVLW      94
	MOVWF      R12+0
	MOVLW      110
	MOVWF      R13+0
L_main21:
	DECFSZ     R13+0, 1
	GOTO       L_main21
	DECFSZ     R12+0, 1
	GOTO       L_main21
	DECFSZ     R11+0, 1
	GOTO       L_main21
	NOP
;CharmbixLab4.c,48 :: 		PORTB = 0x7C;
	MOVLW      124
	MOVWF      PORTB+0
;CharmbixLab4.c,49 :: 		delay_ms(1000);
	MOVLW      26
	MOVWF      R11+0
	MOVLW      94
	MOVWF      R12+0
	MOVLW      110
	MOVWF      R13+0
L_main22:
	DECFSZ     R13+0, 1
	GOTO       L_main22
	DECFSZ     R12+0, 1
	GOTO       L_main22
	DECFSZ     R11+0, 1
	GOTO       L_main22
	NOP
;CharmbixLab4.c,50 :: 		PORTB = 0x77;
	MOVLW      119
	MOVWF      PORTB+0
;CharmbixLab4.c,51 :: 		delay_ms(1000);
	MOVLW      26
	MOVWF      R11+0
	MOVLW      94
	MOVWF      R12+0
	MOVLW      110
	MOVWF      R13+0
L_main23:
	DECFSZ     R13+0, 1
	GOTO       L_main23
	DECFSZ     R12+0, 1
	GOTO       L_main23
	DECFSZ     R11+0, 1
	GOTO       L_main23
	NOP
;CharmbixLab4.c,52 :: 		PORTB = 0x6F;
	MOVLW      111
	MOVWF      PORTB+0
;CharmbixLab4.c,53 :: 		delay_ms(1000);
	MOVLW      26
	MOVWF      R11+0
	MOVLW      94
	MOVWF      R12+0
	MOVLW      110
	MOVWF      R13+0
L_main24:
	DECFSZ     R13+0, 1
	GOTO       L_main24
	DECFSZ     R12+0, 1
	GOTO       L_main24
	DECFSZ     R11+0, 1
	GOTO       L_main24
	NOP
;CharmbixLab4.c,54 :: 		PORTB = 0x7F;
	MOVLW      127
	MOVWF      PORTB+0
;CharmbixLab4.c,55 :: 		delay_ms(1000);
	MOVLW      26
	MOVWF      R11+0
	MOVLW      94
	MOVWF      R12+0
	MOVLW      110
	MOVWF      R13+0
L_main25:
	DECFSZ     R13+0, 1
	GOTO       L_main25
	DECFSZ     R12+0, 1
	GOTO       L_main25
	DECFSZ     R11+0, 1
	GOTO       L_main25
	NOP
;CharmbixLab4.c,56 :: 		PORTB = 0x07;
	MOVLW      7
	MOVWF      PORTB+0
;CharmbixLab4.c,57 :: 		delay_ms(1000);
	MOVLW      26
	MOVWF      R11+0
	MOVLW      94
	MOVWF      R12+0
	MOVLW      110
	MOVWF      R13+0
L_main26:
	DECFSZ     R13+0, 1
	GOTO       L_main26
	DECFSZ     R12+0, 1
	GOTO       L_main26
	DECFSZ     R11+0, 1
	GOTO       L_main26
	NOP
;CharmbixLab4.c,58 :: 		PORTB = 0x7D;
	MOVLW      125
	MOVWF      PORTB+0
;CharmbixLab4.c,59 :: 		delay_ms(1000);
	MOVLW      26
	MOVWF      R11+0
	MOVLW      94
	MOVWF      R12+0
	MOVLW      110
	MOVWF      R13+0
L_main27:
	DECFSZ     R13+0, 1
	GOTO       L_main27
	DECFSZ     R12+0, 1
	GOTO       L_main27
	DECFSZ     R11+0, 1
	GOTO       L_main27
	NOP
;CharmbixLab4.c,60 :: 		PORTB = 0x6D;
	MOVLW      109
	MOVWF      PORTB+0
;CharmbixLab4.c,61 :: 		delay_ms(1000);
	MOVLW      26
	MOVWF      R11+0
	MOVLW      94
	MOVWF      R12+0
	MOVLW      110
	MOVWF      R13+0
L_main28:
	DECFSZ     R13+0, 1
	GOTO       L_main28
	DECFSZ     R12+0, 1
	GOTO       L_main28
	DECFSZ     R11+0, 1
	GOTO       L_main28
	NOP
;CharmbixLab4.c,62 :: 		PORTB = 0x66;
	MOVLW      102
	MOVWF      PORTB+0
;CharmbixLab4.c,63 :: 		delay_ms(1000);
	MOVLW      26
	MOVWF      R11+0
	MOVLW      94
	MOVWF      R12+0
	MOVLW      110
	MOVWF      R13+0
L_main29:
	DECFSZ     R13+0, 1
	GOTO       L_main29
	DECFSZ     R12+0, 1
	GOTO       L_main29
	DECFSZ     R11+0, 1
	GOTO       L_main29
	NOP
;CharmbixLab4.c,64 :: 		PORTB = 0x4F;
	MOVLW      79
	MOVWF      PORTB+0
;CharmbixLab4.c,65 :: 		delay_ms(1000);
	MOVLW      26
	MOVWF      R11+0
	MOVLW      94
	MOVWF      R12+0
	MOVLW      110
	MOVWF      R13+0
L_main30:
	DECFSZ     R13+0, 1
	GOTO       L_main30
	DECFSZ     R12+0, 1
	GOTO       L_main30
	DECFSZ     R11+0, 1
	GOTO       L_main30
	NOP
;CharmbixLab4.c,66 :: 		PORTB = 0x5B;
	MOVLW      91
	MOVWF      PORTB+0
;CharmbixLab4.c,67 :: 		delay_ms(1000);
	MOVLW      26
	MOVWF      R11+0
	MOVLW      94
	MOVWF      R12+0
	MOVLW      110
	MOVWF      R13+0
L_main31:
	DECFSZ     R13+0, 1
	GOTO       L_main31
	DECFSZ     R12+0, 1
	GOTO       L_main31
	DECFSZ     R11+0, 1
	GOTO       L_main31
	NOP
;CharmbixLab4.c,68 :: 		PORTB = 0x06;
	MOVLW      6
	MOVWF      PORTB+0
;CharmbixLab4.c,69 :: 		delay_ms(1000);
	MOVLW      26
	MOVWF      R11+0
	MOVLW      94
	MOVWF      R12+0
	MOVLW      110
	MOVWF      R13+0
L_main32:
	DECFSZ     R13+0, 1
	GOTO       L_main32
	DECFSZ     R12+0, 1
	GOTO       L_main32
	DECFSZ     R11+0, 1
	GOTO       L_main32
	NOP
;CharmbixLab4.c,70 :: 		PORTB = 0x3F;
	MOVLW      63
	MOVWF      PORTB+0
;CharmbixLab4.c,71 :: 		delay_ms(1000);
	MOVLW      26
	MOVWF      R11+0
	MOVLW      94
	MOVWF      R12+0
	MOVLW      110
	MOVWF      R13+0
L_main33:
	DECFSZ     R13+0, 1
	GOTO       L_main33
	DECFSZ     R12+0, 1
	GOTO       L_main33
	DECFSZ     R11+0, 1
	GOTO       L_main33
	NOP
;CharmbixLab4.c,72 :: 		}
	GOTO       L_main0
;CharmbixLab4.c,74 :: 		}
L_end_main:
	GOTO       $+0
; end of _main
